target datalayout = "e-m:e-p270:32:32-p271:32:32-p272:64:64-i64:64-i128:128-f80:128-n8:16:32:64-S128"
target triple = "x86_64-pc-linux-gnu"

%"class.Gluco::vec" = type { ptr, i32, i32 }
%"class.Gluco::Option" = type { ptr, ptr, ptr, ptr, ptr }

@stderr = external global ptr, align 8
@.str.5 = private unnamed_addr constant [15 x i8] c"\0A%s OPTIONS:\0A\0A\00", align 1
@.str.6 = private unnamed_addr constant [2 x i8] c"\0A\00", align 1
@.str.7 = private unnamed_addr constant [17 x i8] c"\0AHELP OPTIONS:\0A\0A\00", align 1
@.str.8 = private unnamed_addr constant [39 x i8] c"  --%shelp        Print help message.\0A\00", align 1
@.str.9 = private unnamed_addr constant [47 x i8] c"  --%shelp-verb   Print verbose help message.\0A\00", align 1
@_ZZN5Gluco6Option19getHelpPrefixStringEvE15help_prefix_str = linkonce_odr global ptr @.str.10, comdat, align 8
@_ZZN5Gluco6Option13getOptionListEvE7options = linkonce_odr global %"class.Gluco::vec" zeroinitializer, comdat, align 8
@_ZGVZN5Gluco6Option13getOptionListEvE7options = linkonce_odr global i64 0, comdat, align 8
@__dso_handle = external hidden global i8
@_ZZN5Gluco6Option14getUsageStringEvE9usage_str = linkonce_odr global ptr null, comdat, align 8

; Function Attrs: mustprogress nounwind uwtable
define linkonce_odr noundef ptr @_ZN5Gluco3vecIPNS_6OptionEEcvPS2_Ev(ptr noundef nonnull align 8 dereferenceable(16) %0) #0 comdat align 2 {
  %2 = alloca ptr, align 8
  store ptr %0, ptr %2, align 8, !tbaa !34
  %3 = load ptr, ptr %2, align 8
  %4 = getelementptr inbounds nuw %"class.Gluco::vec", ptr %3, i32 0, i32 0
  %5 = load ptr, ptr %4, align 8, !tbaa !39
  ret ptr %5
}

; Function Attrs: mustprogress nounwind uwtable
define linkonce_odr void @_ZN5Gluco3vecIPNS_6OptionEEC2Ev(ptr noundef nonnull align 8 dereferenceable(16) %0) unnamed_addr #0 comdat align 2 {
  %2 = alloca ptr, align 8
  store ptr %0, ptr %2, align 8, !tbaa !34
  %3 = load ptr, ptr %2, align 8
  %4 = getelementptr inbounds nuw %"class.Gluco::vec", ptr %3, i32 0, i32 0
  store ptr null, ptr %4, align 8, !tbaa !39
  %5 = getelementptr inbounds nuw %"class.Gluco::vec", ptr %3, i32 0, i32 1
  store i32 0, ptr %5, align 8, !tbaa !36
  %6 = getelementptr inbounds nuw %"class.Gluco::vec", ptr %3, i32 0, i32 2
  store i32 0, ptr %6, align 4, !tbaa !41
  ret void
}

; Function Attrs: mustprogress nounwind uwtable
define linkonce_odr noundef nonnull align 8 dereferenceable(8) ptr @_ZN5Gluco6Option19getHelpPrefixStringEv() #0 comdat align 2 {
  ret ptr @_ZZN5Gluco6Option19getHelpPrefixStringEvE15help_prefix_str
}

; Function Attrs: mustprogress nounwind uwtable
define linkonce_odr noundef nonnull align 8 dereferenceable(8) ptr @_ZN5Gluco3vecIPNS_6OptionEEixEi(ptr noundef nonnull align 8 dereferenceable(16) %0, i32 noundef %1) #0 comdat align 2 {
  %3 = alloca ptr, align 8
  %4 = alloca i32, align 4
  store ptr %0, ptr %3, align 8, !tbaa !34
  store i32 %1, ptr %4, align 4, !tbaa !12
  %5 = load ptr, ptr %3, align 8
  %6 = getelementptr inbounds nuw %"class.Gluco::vec", ptr %5, i32 0, i32 0
  %7 = load ptr, ptr %6, align 8, !tbaa !39
  %8 = load i32, ptr %4, align 4, !tbaa !12
  %9 = sext i32 %8 to i64
  %10 = getelementptr inbounds ptr, ptr %7, i64 %9
  ret ptr %10
}

; Function Attrs: mustprogress nounwind uwtable
define linkonce_odr noundef i32 @_ZNK5Gluco3vecIPNS_6OptionEE4sizeEv(ptr noundef nonnull align 8 dereferenceable(16) %0) #0 comdat align 2 {
  %2 = alloca ptr, align 8
  store ptr %0, ptr %2, align 8, !tbaa !34
  %3 = load ptr, ptr %2, align 8
  %4 = getelementptr inbounds nuw %"class.Gluco::vec", ptr %3, i32 0, i32 1
  %5 = load i32, ptr %4, align 8, !tbaa !36
  ret i32 %5
}

; Function Attrs: mustprogress nounwind uwtable
define linkonce_odr void @_ZN5Gluco4sortIPNS_6OptionENS1_8OptionLtEEEvRNS_3vecIT_EET0_(ptr noundef nonnull align 8 dereferenceable(16) %0) #0 comdat {
  %2 = alloca ptr, align 8
  store ptr %0, ptr %2, align 8, !tbaa !34
  %3 = load ptr, ptr %2, align 8, !tbaa !34
  %4 = call noundef ptr @_ZN5Gluco3vecIPNS_6OptionEEcvPS2_Ev(ptr noundef nonnull align 8 dereferenceable(16) %3)
  %5 = load ptr, ptr %2, align 8, !tbaa !34
  %6 = call noundef i32 @_ZNK5Gluco3vecIPNS_6OptionEE4sizeEv(ptr noundef nonnull align 8 dereferenceable(16) %5)
  call void @_ZN5Gluco4sortIPNS_6OptionENS1_8OptionLtEEEvPT_iT0_(ptr noundef %4, i32 noundef %6)
  ret void
}

; Function Attrs: mustprogress nounwind uwtable
define linkonce_odr noundef nonnull align 8 dereferenceable(16) ptr @_ZN5Gluco6Option13getOptionListEv() #0 comdat align 2 {
  %1 = load atomic i8, ptr @_ZGVZN5Gluco6Option13getOptionListEvE7options acquire, align 8
  %2 = icmp eq i8 %1, 0
  br i1 %2, label %3, label %8, !prof !33

3:                                                ; preds = %0
  %4 = call i32 @__cxa_guard_acquire(ptr @_ZGVZN5Gluco6Option13getOptionListEvE7options) #4
  %5 = icmp ne i32 %4, 0
  br i1 %5, label %6, label %8

6:                                                ; preds = %3
  call void @_ZN5Gluco3vecIPNS_6OptionEEC2Ev(ptr noundef nonnull align 8 dereferenceable(16) @_ZZN5Gluco6Option13getOptionListEvE7options)
  %7 = call i32 @__cxa_atexit(ptr @_ZN5Gluco3vecIPNS_6OptionEED2Ev, ptr @_ZZN5Gluco6Option13getOptionListEvE7options, ptr @__dso_handle) #4
  call void @__cxa_guard_release(ptr @_ZGVZN5Gluco6Option13getOptionListEvE7options) #4
  br label %8

8:                                                ; preds = %6, %3, %0
  ret ptr @_ZZN5Gluco6Option13getOptionListEvE7options
}

; Function Attrs: mustprogress nounwind uwtable
define linkonce_odr noundef nonnull align 8 dereferenceable(8) ptr @_ZN5Gluco6Option14getUsageStringEv() #0 comdat align 2 {
  ret ptr @_ZZN5Gluco6Option14getUsageStringEvE9usage_str
}

; Function Attrs: mustprogress nounwind uwtable
define void @_ZN5Gluco17printUsageAndExitEiPPcb(i32 noundef %0, ptr noundef %1, i1 noundef zeroext %2) #0 {
  %4 = alloca i32, align 4
  %5 = alloca ptr, align 8
  %6 = alloca i8, align 1
  %7 = alloca ptr, align 8
  %8 = alloca ptr, align 8
  %9 = alloca ptr, align 8
  %10 = alloca i32, align 4
  %11 = alloca ptr, align 8
  %12 = alloca ptr, align 8
  store i32 %0, ptr %4, align 4, !tbaa !12
  store ptr %1, ptr %5, align 8, !tbaa !8
  %13 = zext i1 %2 to i8
  store i8 %13, ptr %6, align 1, !tbaa !10
  call void @llvm.lifetime.start.p0(i64 8, ptr %7) #4
  %14 = call noundef nonnull align 8 dereferenceable(8) ptr @_ZN5Gluco6Option14getUsageStringEv()
  %15 = load ptr, ptr %14, align 8, !tbaa !14
  store ptr %15, ptr %7, align 8, !tbaa !14
  %16 = load ptr, ptr %7, align 8, !tbaa !14
  %17 = icmp ne ptr %16, null
  br i1 %17, label %18, label %25

18:                                               ; preds = %3
  %19 = load ptr, ptr @stderr, align 8, !tbaa !25
  %20 = load ptr, ptr %7, align 8, !tbaa !14
  %21 = load ptr, ptr %5, align 8, !tbaa !8
  %22 = getelementptr inbounds ptr, ptr %21, i64 0
  %23 = load ptr, ptr %22, align 8, !tbaa !14
  %24 = call i32 (ptr, ptr, ...) @fprintf(ptr noundef %19, ptr noundef %20, ptr noundef %23) #4
  br label %25

25:                                               ; preds = %18, %3
  %26 = call noundef nonnull align 8 dereferenceable(16) ptr @_ZN5Gluco6Option13getOptionListEv()
  call void @_ZN5Gluco4sortIPNS_6OptionENS1_8OptionLtEEEvRNS_3vecIT_EET0_(ptr noundef nonnull align 8 dereferenceable(16) %26)
  call void @llvm.lifetime.start.p0(i64 8, ptr %8) #4
  store ptr null, ptr %8, align 8, !tbaa !14
  call void @llvm.lifetime.start.p0(i64 8, ptr %9) #4
  store ptr null, ptr %9, align 8, !tbaa !14
  call void @llvm.lifetime.start.p0(i64 4, ptr %10) #4
  store i32 0, ptr %10, align 4, !tbaa !12
  br label %27

27:                                               ; preds = %83, %25
  %28 = load i32, ptr %10, align 4, !tbaa !12
  %29 = call noundef nonnull align 8 dereferenceable(16) ptr @_ZN5Gluco6Option13getOptionListEv()
  %30 = call noundef i32 @_ZNK5Gluco3vecIPNS_6OptionEE4sizeEv(ptr noundef nonnull align 8 dereferenceable(16) %29)
  %31 = icmp slt i32 %28, %30
  br i1 %31, label %33, label %32

32:                                               ; preds = %27
  call void @llvm.lifetime.end.p0(i64 4, ptr %10) #4
  br label %86

33:                                               ; preds = %27
  call void @llvm.lifetime.start.p0(i64 8, ptr %11) #4
  %34 = call noundef nonnull align 8 dereferenceable(16) ptr @_ZN5Gluco6Option13getOptionListEv()
  %35 = load i32, ptr %10, align 4, !tbaa !12
  %36 = call noundef nonnull align 8 dereferenceable(8) ptr @_ZN5Gluco3vecIPNS_6OptionEEixEi(ptr noundef nonnull align 8 dereferenceable(16) %34, i32 noundef %35)
  %37 = load ptr, ptr %36, align 8, !tbaa !19
  %38 = getelementptr inbounds nuw %"class.Gluco::Option", ptr %37, i32 0, i32 3
  %39 = load ptr, ptr %38, align 8, !tbaa !29
  store ptr %39, ptr %11, align 8, !tbaa !14
  call void @llvm.lifetime.start.p0(i64 8, ptr %12) #4
  %40 = call noundef nonnull align 8 dereferenceable(16) ptr @_ZN5Gluco6Option13getOptionListEv()
  %41 = load i32, ptr %10, align 4, !tbaa !12
  %42 = call noundef nonnull align 8 dereferenceable(8) ptr @_ZN5Gluco3vecIPNS_6OptionEEixEi(ptr noundef nonnull align 8 dereferenceable(16) %40, i32 noundef %41)
  %43 = load ptr, ptr %42, align 8, !tbaa !19
  %44 = getelementptr inbounds nuw %"class.Gluco::Option", ptr %43, i32 0, i32 4
  %45 = load ptr, ptr %44, align 8, !tbaa !31
  store ptr %45, ptr %12, align 8, !tbaa !14
  %46 = load ptr, ptr %11, align 8, !tbaa !14
  %47 = load ptr, ptr %8, align 8, !tbaa !14
  %48 = icmp ne ptr %46, %47
  br i1 %48, label %49, label %53

49:                                               ; preds = %33
  %50 = load ptr, ptr @stderr, align 8, !tbaa !25
  %51 = load ptr, ptr %11, align 8, !tbaa !14
  %52 = call i32 (ptr, ptr, ...) @fprintf(ptr noundef %50, ptr noundef @.str.5, ptr noundef %51) #4
  br label %61

53:                                               ; preds = %33
  %54 = load ptr, ptr %12, align 8, !tbaa !14
  %55 = load ptr, ptr %9, align 8, !tbaa !14
  %56 = icmp ne ptr %54, %55
  br i1 %56, label %57, label %60

57:                                               ; preds = %53
  %58 = load ptr, ptr @stderr, align 8, !tbaa !25
  %59 = call i32 (ptr, ptr, ...) @fprintf(ptr noundef %58, ptr noundef @.str.6) #4
  br label %60

60:                                               ; preds = %57, %53
  br label %61

61:                                               ; preds = %60, %49
  %62 = call noundef nonnull align 8 dereferenceable(16) ptr @_ZN5Gluco6Option13getOptionListEv()
  %63 = load i32, ptr %10, align 4, !tbaa !12
  %64 = call noundef nonnull align 8 dereferenceable(8) ptr @_ZN5Gluco3vecIPNS_6OptionEEixEi(ptr noundef nonnull align 8 dereferenceable(16) %62, i32 noundef %63)
  %65 = load ptr, ptr %64, align 8, !tbaa !19
  %66 = load i8, ptr %6, align 1, !tbaa !10, !range !17, !noundef !18
  %67 = trunc i8 %66 to i1
  %68 = load ptr, ptr %65, align 8, !tbaa !21
  %69 = getelementptr inbounds ptr, ptr %68, i64 3
  %70 = load ptr, ptr %69, align 8
  call void %70(ptr noundef nonnull align 8 dereferenceable(40) %65, i1 noundef zeroext %67)
  %71 = call noundef nonnull align 8 dereferenceable(16) ptr @_ZN5Gluco6Option13getOptionListEv()
  %72 = load i32, ptr %10, align 4, !tbaa !12
  %73 = call noundef nonnull align 8 dereferenceable(8) ptr @_ZN5Gluco3vecIPNS_6OptionEEixEi(ptr noundef nonnull align 8 dereferenceable(16) %71, i32 noundef %72)
  %74 = load ptr, ptr %73, align 8, !tbaa !19
  %75 = getelementptr inbounds nuw %"class.Gluco::Option", ptr %74, i32 0, i32 3
  %76 = load ptr, ptr %75, align 8, !tbaa !29
  store ptr %76, ptr %8, align 8, !tbaa !14
  %77 = call noundef nonnull align 8 dereferenceable(16) ptr @_ZN5Gluco6Option13getOptionListEv()
  %78 = load i32, ptr %10, align 4, !tbaa !12
  %79 = call noundef nonnull align 8 dereferenceable(8) ptr @_ZN5Gluco3vecIPNS_6OptionEEixEi(ptr noundef nonnull align 8 dereferenceable(16) %77, i32 noundef %78)
  %80 = load ptr, ptr %79, align 8, !tbaa !19
  %81 = getelementptr inbounds nuw %"class.Gluco::Option", ptr %80, i32 0, i32 4
  %82 = load ptr, ptr %81, align 8, !tbaa !31
  store ptr %82, ptr %9, align 8, !tbaa !14
  call void @llvm.lifetime.end.p0(i64 8, ptr %12) #4
  call void @llvm.lifetime.end.p0(i64 8, ptr %11) #4
  br label %83

83:                                               ; preds = %61
  %84 = load i32, ptr %10, align 4, !tbaa !12
  %85 = add nsw i32 %84, 1
  store i32 %85, ptr %10, align 4, !tbaa !12
  br label %27, !llvm.loop !32

86:                                               ; preds = %32
  %87 = load ptr, ptr @stderr, align 8, !tbaa !25
  %88 = call i32 (ptr, ptr, ...) @fprintf(ptr noundef %87, ptr noundef @.str.7) #4
  %89 = load ptr, ptr @stderr, align 8, !tbaa !25
  %90 = call noundef nonnull align 8 dereferenceable(8) ptr @_ZN5Gluco6Option19getHelpPrefixStringEv()
  %91 = load ptr, ptr %90, align 8, !tbaa !14
  %92 = call i32 (ptr, ptr, ...) @fprintf(ptr noundef %89, ptr noundef @.str.8, ptr noundef %91) #4
  %93 = load ptr, ptr @stderr, align 8, !tbaa !25
  %94 = call noundef nonnull align 8 dereferenceable(8) ptr @_ZN5Gluco6Option19getHelpPrefixStringEv()
  %95 = load ptr, ptr %94, align 8, !tbaa !14
  %96 = call i32 (ptr, ptr, ...) @fprintf(ptr noundef %93, ptr noundef @.str.9, ptr noundef %95) #4
  %97 = load ptr, ptr @stderr, align 8, !tbaa !25
  %98 = call i32 (ptr, ptr, ...) @fprintf(ptr noundef %97, ptr noundef @.str.6) #4
  call void @exit(i32 noundef 0) #6
  unreachable
}